target datalayout = "e-m:e-p270:32:32-p271:32:32-p272:64:64-i64:64-i128:128-f80:128-n8:16:32:64-S128"
target triple = "x86_64-pc-linux-gnu"

@is_rdmnet_over_tcp.acn_packet_id = internal constant [13 x i8] c"ASC-E1.17\00\00\00\00", align 1

; Function Attrs: null_pointer_is_valid sspstrong uwtable
define internal i32 @dissect_rdmnet_over_tcp(ptr noundef %0, ptr noundef %1, ptr noundef %2, ptr noundef %3) #0 {
  %5 = alloca ptr, align 8
  %6 = alloca ptr, align 8
  %7 = alloca ptr, align 8
  %8 = alloca ptr, align 8
  store ptr %0, ptr %5, align 8
  store ptr %1, ptr %6, align 8
  store ptr %2, ptr %7, align 8
  store ptr %3, ptr %8, align 8
  %9 = load ptr, ptr %5, align 8
  %10 = load ptr, ptr %6, align 8
  %11 = load ptr, ptr %7, align 8
  %12 = load ptr, ptr %8, align 8
  call void @tcp_dissect_pdus(ptr noundef %9, ptr noundef %10, ptr noundef %11, i1 noundef zeroext true, i32 noundef 16, ptr noundef @get_rdmnet_tcp_message_length, ptr noundef @dissect_one_rdmnet_over_tcp_message, ptr noundef %12)
  %13 = load ptr, ptr %5, align 8
  %14 = call i32 @tvb_captured_length(ptr noundef %13)
  ret i32 %14
}

; Function Attrs: null_pointer_is_valid sspstrong uwtable
define internal zeroext i1 @is_rdmnet_over_tcp(ptr noundef %0) #0 {
  %2 = alloca i1, align 1
  %3 = alloca ptr, align 8
  %4 = alloca i32, align 4
  %5 = alloca i32, align 4
  %6 = alloca i8, align 1
  %7 = alloca i32, align 4
  store ptr %0, ptr %3, align 8
  call void @llvm.lifetime.start.p0(i64 4, ptr %4) #7
  call void @llvm.lifetime.start.p0(i64 4, ptr %5) #7
  call void @llvm.lifetime.start.p0(i64 1, ptr %6) #7
  %8 = load ptr, ptr %3, align 8
  %9 = call i32 @tvb_captured_length(ptr noundef %8)
  %10 = zext i32 %9 to i64
  %11 = icmp ult i64 %10, 17
  br i1 %11, label %12, label %13

12:                                               ; preds = %1
  store i1 false, ptr %2, align 1
  store i32 1, ptr %7, align 4
  br label %49

13:                                               ; preds = %1
  %14 = load ptr, ptr %3, align 8
  %15 = call i32 @tvb_memeql(ptr noundef %14, i32 noundef 0, ptr noundef @is_rdmnet_over_tcp.acn_packet_id, i64 noundef 12)
  %16 = icmp ne i32 %15, 0
  br i1 %16, label %17, label %18

17:                                               ; preds = %13
  store i1 false, ptr %2, align 1
  store i32 1, ptr %7, align 4
  br label %49

18:                                               ; preds = %13
  store i32 16, ptr %4, align 4
  %19 = load ptr, ptr %3, align 8
  %20 = load i32, ptr %4, align 4
  %21 = call zeroext i8 @tvb_get_uint8(ptr noundef %19, i32 noundef %20)
  %22 = zext i8 %21 to i32
  %23 = and i32 %22, 240
  %24 = trunc i32 %23 to i8
  store i8 %24, ptr %6, align 1
  %25 = load i8, ptr %6, align 1
  %26 = zext i8 %25 to i32
  %27 = and i32 %26, 128
  %28 = icmp ne i32 %27, 0
  br i1 %28, label %29, label %32

29:                                               ; preds = %18
  %30 = load i32, ptr %4, align 4
  %31 = add i32 %30, 3
  store i32 %31, ptr %4, align 4
  br label %35

32:                                               ; preds = %18
  %33 = load i32, ptr %4, align 4
  %34 = add i32 %33, 2
  store i32 %34, ptr %4, align 4
  br label %35

35:                                               ; preds = %32, %29
  %36 = load ptr, ptr %3, align 8
  %37 = load i32, ptr %4, align 4
  %38 = call i32 @tvb_get_ntohl(ptr noundef %36, i32 noundef %37)
  store i32 %38, ptr %5, align 4
  %39 = load i32, ptr %5, align 4
  %40 = icmp eq i32 %39, 9
  br i1 %40, label %47, label %41

41:                                               ; preds = %35
  %42 = load i32, ptr %5, align 4
  %43 = icmp eq i32 %42, 5
  br i1 %43, label %47, label %44

44:                                               ; preds = %41
  %45 = load i32, ptr %5, align 4
  %46 = icmp eq i32 %45, 11
  br i1 %46, label %47, label %48

47:                                               ; preds = %44, %41, %35
  store i1 true, ptr %2, align 1
  store i32 1, ptr %7, align 4
  br label %49

48:                                               ; preds = %44
  store i1 false, ptr %2, align 1
  store i32 1, ptr %7, align 4
  br label %49

49:                                               ; preds = %48, %47, %17, %12
  call void @llvm.lifetime.end.p0(i64 1, ptr %6) #7
  call void @llvm.lifetime.end.p0(i64 4, ptr %5) #7
  call void @llvm.lifetime.end.p0(i64 4, ptr %4) #7
  %50 = load i1, ptr %2, align 1
  ret i1 %50
}

; Function Attrs: null_pointer_is_valid sspstrong uwtable
define internal zeroext i1 @dissect_rdmnet_over_tcp_heur(ptr noundef %0, ptr noundef %1, ptr noundef %2, ptr noundef %3) #0 {
  %5 = alloca i1, align 1
  %6 = alloca ptr, align 8
  %7 = alloca ptr, align 8
  %8 = alloca ptr, align 8
  %9 = alloca ptr, align 8
  store ptr %0, ptr %6, align 8
  store ptr %1, ptr %7, align 8
  store ptr %2, ptr %8, align 8
  store ptr %3, ptr %9, align 8
  %10 = load ptr, ptr %6, align 8
  %11 = call zeroext i1 @is_rdmnet_over_tcp(ptr noundef %10)
  br i1 %11, label %13, label %12

12:                                               ; preds = %4
  store i1 false, ptr %5, align 1
  br label %19

13:                                               ; preds = %4
  %14 = load ptr, ptr %6, align 8
  %15 = load ptr, ptr %7, align 8
  %16 = load ptr, ptr %8, align 8
  %17 = load ptr, ptr %9, align 8
  %18 = call i32 @dissect_rdmnet_over_tcp(ptr noundef %14, ptr noundef %15, ptr noundef %16, ptr noundef %17)
  store i1 true, ptr %5, align 1
  br label %19

19:                                               ; preds = %13, %12
  %20 = load i1, ptr %5, align 1
  ret i1 %20
}