; Function Attrs: null_pointer_is_valid sspstrong uwtable
define internal noundef zeroext i1 @dissect_rdmnet_over_tcp_heur(ptr noundef %0, ptr noundef %1, ptr noundef %2, ptr noundef %3) #0 {
  %5 = tail call i32 @tvb_captured_length(ptr noundef %0)
  %6 = icmp ult i32 %5, 17
  br i1 %6, label %is_rdmnet_over_tcp.exit.thread, label %7

7:                                                ; preds = %4
  %8 = tail call i32 @tvb_memeql(ptr noundef %0, i32 noundef 0, ptr noundef nonnull @is_rdmnet_over_tcp.acn_packet_id, i64 noundef 12)
  %.not.i = icmp eq i32 %8, 0
  br i1 %.not.i, label %9, label %is_rdmnet_over_tcp.exit.thread

9:                                                ; preds = %7
  %10 = tail call zeroext i8 @tvb_get_uint8(ptr noundef %0, i32 noundef 16)
  %.not16.i = icmp sgt i8 %10, -1
  %..i = select i1 %.not16.i, i32 18, i32 19
  %11 = tail call i32 @tvb_get_ntohl(ptr noundef %0, i32 noundef %..i)
  switch i32 %11, label %is_rdmnet_over_tcp.exit.thread [
    i32 11, label %is_rdmnet_over_tcp.exit
    i32 9, label %is_rdmnet_over_tcp.exit
    i32 5, label %is_rdmnet_over_tcp.exit
  ]

is_rdmnet_over_tcp.exit:                          ; preds = %9, %9, %9
  tail call void @tcp_dissect_pdus(ptr noundef %0, ptr noundef %1, ptr noundef %2, i1 noundef zeroext true, i32 noundef 16, ptr noundef nonnull @get_rdmnet_tcp_message_length, ptr noundef nonnull @dissect_one_rdmnet_over_tcp_message, ptr noundef %3)
  %12 = tail call i32 @tvb_captured_length(ptr noundef %0)
  br label %is_rdmnet_over_tcp.exit.thread

is_rdmnet_over_tcp.exit.thread:                   ; preds = %9, %7, %4, %is_rdmnet_over_tcp.exit
  %.0.i7 = phi i1 [ true, %is_rdmnet_over_tcp.exit ], [ false, %4 ], [ false, %7 ], [ false, %9 ]
  ret i1 %.0.i7
}